target datalayout = "e-m:e-p270:32:32-p271:32:32-p272:64:64-i64:64-i128:128-f80:128-n8:16:32:64-S128"
target triple = "x86_64-pc-linux-gnu"

@.str.1 = private unnamed_addr constant [13 x i8] c"script_lua.c\00", align 1
@.str.105 = private unnamed_addr constant [52 x i8] c"lua stack limit reach when parsing redis.call reply\00", align 1
@.str.111 = private unnamed_addr constant [11 x i8] c"big_number\00", align 1

; Function Attrs: nounwind uwtable
define internal void @redisProtocolToLuaType_BigNumber(ptr noundef %0, ptr noundef %1, i64 noundef %2, ptr noundef %3, i64 noundef %4) #0 {
  %6 = alloca ptr, align 8
  %7 = alloca ptr, align 8
  %8 = alloca i64, align 8
  %9 = alloca ptr, align 8
  %10 = alloca i64, align 8
  %11 = alloca ptr, align 8
  store ptr %0, ptr %6, align 8, !tbaa !12
  store ptr %1, ptr %7, align 8, !tbaa !10
  store i64 %2, ptr %8, align 8, !tbaa !23
  store ptr %3, ptr %9, align 8, !tbaa !10
  store i64 %4, ptr %10, align 8, !tbaa !23
  %12 = load ptr, ptr %6, align 8, !tbaa !12
  %13 = icmp ne ptr %12, null
  br i1 %13, label %15, label %14

14:                                               ; preds = %5
  br label %28

15:                                               ; preds = %5
  call void @llvm.lifetime.start.p0(i64 8, ptr %11) #12
  %16 = load ptr, ptr %6, align 8, !tbaa !12
  store ptr %16, ptr %11, align 8, !tbaa !5
  %17 = load ptr, ptr %11, align 8, !tbaa !5
  %18 = call i32 @lua_checkstack(ptr noundef %17, i32 noundef 3)
  %19 = icmp ne i32 %18, 0
  br i1 %19, label %21, label %20

20:                                               ; preds = %15
  call void (ptr, i32, ptr, ...) @_serverPanic(ptr noundef @.str.1, i32 noundef 446, ptr noundef @.str.105)
  call void @abort() #11
  unreachable

21:                                               ; preds = %15
  %22 = load ptr, ptr %11, align 8, !tbaa !5
  call void @lua_createtable(ptr noundef %22, i32 noundef 0, i32 noundef 0)
  %23 = load ptr, ptr %11, align 8, !tbaa !5
  call void @lua_pushstring(ptr noundef %23, ptr noundef @.str.111)
  %24 = load ptr, ptr %11, align 8, !tbaa !5
  %25 = load ptr, ptr %7, align 8, !tbaa !10
  %26 = load i64, ptr %8, align 8, !tbaa !23
  call void @lua_pushlstring(ptr noundef %24, ptr noundef %25, i64 noundef %26)
  %27 = load ptr, ptr %11, align 8, !tbaa !5
  call void @lua_settable(ptr noundef %27, i32 noundef -3)
  call void @llvm.lifetime.end.p0(i64 8, ptr %11) #12
  br label %28

28:                                               ; preds = %21, %14
  ret void
}