; Function Attrs: nounwind uwtable
define internal void @redisProtocolToLuaType_BigNumber(ptr noundef %0, ptr noundef %1, i64 noundef %2, ptr readnone captures(none) %3, i64 %4) #0 {
  %.not = icmp eq ptr %0, null
  br i1 %.not, label %10, label %6

6:                                                ; preds = %5
  %7 = tail call i32 @lua_checkstack(ptr noundef nonnull %0, i32 noundef 3) #11
  %.not8 = icmp eq i32 %7, 0
  br i1 %.not8, label %8, label %9

8:                                                ; preds = %6
  tail call void (ptr, i32, ptr, ...) @_serverPanic(ptr noundef nonnull @.str.1, i32 noundef 446, ptr noundef nonnull @.str.105) #11
  tail call void @abort() #12
  unreachable

9:                                                ; preds = %6
  tail call void @lua_createtable(ptr noundef nonnull %0, i32 noundef 0, i32 noundef 0) #11
  tail call void @lua_pushstring(ptr noundef nonnull %0, ptr noundef nonnull @.str.111) #11
  tail call void @lua_pushlstring(ptr noundef nonnull %0, ptr noundef %1, i64 noundef %2) #11
  tail call void @lua_settable(ptr noundef nonnull %0, i32 noundef -3) #11
  br label %10

10:                                               ; preds = %5, %9
  ret void
}